target datalayout = "e-m:e-p270:32:32-p271:32:32-p272:64:64-i64:64-i128:128-f80:128-n8:16:32:64-S128"
target triple = "x86_64-pc-linux-gnu"

@PropertyList = internal global [2 x ptr] [ptr @CR_Hiragana, ptr @CR_Katakana], align 16

; Function Attrs: nounwind uwtable
define internal i32 @get_ctype_code_range(i32 noundef %0, ptr noundef %1, ptr noundef %2) #0 {
  %4 = alloca i32, align 4
  %5 = alloca i32, align 4
  %6 = alloca ptr, align 8
  %7 = alloca ptr, align 8
  store i32 %0, ptr %5, align 4, !tbaa !10
  store ptr %1, ptr %6, align 8, !tbaa !27
  store ptr %2, ptr %7, align 8, !tbaa !29
  %8 = load i32, ptr %5, align 4, !tbaa !10
  %9 = icmp ule i32 %8, 14
  br i1 %9, label %10, label %11

10:                                               ; preds = %3
  store i32 -2, ptr %4, align 4
  br label %24

11:                                               ; preds = %3
  %12 = load ptr, ptr %6, align 8, !tbaa !27
  store i32 128, ptr %12, align 4, !tbaa !10
  %13 = load i32, ptr %5, align 4, !tbaa !10
  %14 = sub i32 %13, 15
  store i32 %14, ptr %5, align 4, !tbaa !10
  %15 = load i32, ptr %5, align 4, !tbaa !10
  %16 = icmp uge i32 %15, 2
  br i1 %16, label %17, label %18

17:                                               ; preds = %11
  store i32 -6, ptr %4, align 4
  br label %24

18:                                               ; preds = %11
  %19 = load i32, ptr %5, align 4, !tbaa !10
  %20 = zext i32 %19 to i64
  %21 = getelementptr inbounds nuw [2 x ptr], ptr @PropertyList, i64 0, i64 %20
  %22 = load ptr, ptr %21, align 8, !tbaa !27
  %23 = load ptr, ptr %7, align 8, !tbaa !29
  store ptr %22, ptr %23, align 8, !tbaa !27
  store i32 0, ptr %4, align 4
  br label %24

24:                                               ; preds = %18, %17, %10
  %25 = load i32, ptr %4, align 4
  ret i32 %25
}