; Function Attrs: mustprogress nofree norecurse nosync nounwind willreturn memory(argmem: write) uwtable
define internal range(i32 -6, 1) i32 @get_ctype_code_range(i32 noundef %0, ptr noundef writeonly captures(none) %1, ptr noundef writeonly captures(none) %2) #4 {
  %4 = icmp ult i32 %0, 15
  br i1 %4, label %12, label %5

5:                                                ; preds = %3
  store i32 128, ptr %1, align 4, !tbaa !7
  %6 = add i32 %0, -15
  %7 = icmp ugt i32 %6, 1
  br i1 %7, label %12, label %8

8:                                                ; preds = %5
  %9 = zext nneg i32 %6 to i64
  %10 = getelementptr inbounds nuw [2 x ptr], ptr @PropertyList, i64 0, i64 %9
  %11 = load ptr, ptr %10, align 8, !tbaa !21
  store ptr %11, ptr %2, align 8, !tbaa !21
  br label %12

12:                                               ; preds = %5, %3, %8
  %.0 = phi i32 [ 0, %8 ], [ -2, %3 ], [ -6, %5 ]
  ret i32 %.0
}